target datalayout = "e-m:e-p270:32:32-p271:32:32-p272:64:64-i64:64-i128:128-f80:128-n8:16:32:64-S128"
target triple = "x86_64-pc-linux-gnu"

@.str.1 = private unnamed_addr constant [2 x i8] c"a\00", align 1
@.str.2 = private unnamed_addr constant [3 x i8] c"w+\00", align 1

; Function Attrs: nounwind uwtable
define i32 @php_stream_mode_from_str(ptr noundef %0) #0 {
  %2 = alloca i32, align 4
  %3 = alloca ptr, align 8
  store ptr %0, ptr %3, align 8
  %4 = load ptr, ptr %3, align 8
  %5 = call ptr @strpbrk(ptr noundef %4, ptr noundef @.str.1) #14
  %6 = icmp ne ptr %5, null
  br i1 %6, label %7, label %8

7:                                                ; preds = %1
  store i32 4, ptr %2, align 4
  br label %15

8:                                                ; preds = %1
  %9 = load ptr, ptr %3, align 8
  %10 = call ptr @strpbrk(ptr noundef %9, ptr noundef @.str.2) #14
  %11 = icmp ne ptr %10, null
  br i1 %11, label %12, label %13

12:                                               ; preds = %8
  store i32 0, ptr %2, align 4
  br label %15

13:                                               ; preds = %8
  br label %14

14:                                               ; preds = %13
  store i32 1, ptr %2, align 4
  br label %15

15:                                               ; preds = %14, %12, %7
  %16 = load i32, ptr %2, align 4
  ret i32 %16
}