; Function Attrs: mustprogress nofree nounwind willreturn memory(argmem: read) uwtable
define i32 @php_stream_mode_from_str(ptr noundef readonly %0) local_unnamed_addr #5 {
  %strchr = tail call ptr @strchr(ptr noundef nonnull dereferenceable(1) %0, i32 97)
  %.not = icmp eq ptr %strchr, null
  br i1 %.not, label %2, label %4

2:                                                ; preds = %1
  %3 = tail call ptr @strpbrk(ptr noundef %0, ptr noundef nonnull @.str.2) #21
  %.not2 = icmp eq ptr %3, null
  %. = zext i1 %.not2 to i32
  br label %4

4:                                                ; preds = %2, %1
  %.0 = phi i32 [ 4, %1 ], [ %., %2 ]
  ret i32 %.0
}